target datalayout = "e-m:e-p270:32:32-p271:32:32-p272:64:64-i64:64-i128:128-f80:128-n8:16:32:64-S128"
target triple = "x86_64-pc-linux-gnu"

%struct.lemon = type { ptr, ptr, ptr, i32, i32, i32, i32, i32, i32, i32, i32, i32, i32, i32, i32, ptr, i32, ptr, ptr, ptr, ptr, ptr, ptr, ptr, ptr, ptr, ptr, ptr, ptr, ptr, ptr, ptr, ptr, ptr, ptr, ptr, ptr, i32, i32, i32, i32, i32, i32, i32, i32, ptr }
%struct.rule = type { ptr, ptr, i32, i32, i32, ptr, ptr, i32, ptr, ptr, ptr, ptr, i32, i32, i32, i32, i32, i32, i32, ptr, ptr }

@.str.84 = private unnamed_addr constant [3 x i8] c"%s\00", align 1
@.str.133 = private unnamed_addr constant [11 x i8] c"#line %d \22\00", align 1
@.str.134 = private unnamed_addr constant [3 x i8] c"\22\0A\00", align 1
@.str.137 = private unnamed_addr constant [3 x i8] c"}\0A\00", align 1
@.str.152 = private unnamed_addr constant [4 x i8] c"{%s\00", align 1

; Function Attrs: null_pointer_is_valid sspstrong uwtable
define hidden void @tplt_linedir(ptr noundef %0, i32 noundef %1, ptr noundef %2) #0 {
  %4 = alloca ptr, align 8
  %5 = alloca i32, align 4
  %6 = alloca ptr, align 8
  store ptr %0, ptr %4, align 8
  store i32 %1, ptr %5, align 4
  store ptr %2, ptr %6, align 8
  %7 = load ptr, ptr %4, align 8
  %8 = load i32, ptr %5, align 4
  %9 = call i32 (ptr, i32, ptr, ...) @__fprintf_chk(ptr noundef %7, i32 noundef 2, ptr noundef @.str.133, i32 noundef %8)
  br label %10

10:                                               ; preds = %22, %3
  %11 = load ptr, ptr %6, align 8
  %12 = load i8, ptr %11, align 1
  %13 = icmp ne i8 %12, 0
  br i1 %13, label %14, label %30

14:                                               ; preds = %10
  %15 = load ptr, ptr %6, align 8
  %16 = load i8, ptr %15, align 1
  %17 = sext i8 %16 to i32
  %18 = icmp eq i32 %17, 92
  br i1 %18, label %19, label %22

19:                                               ; preds = %14
  %20 = load ptr, ptr %4, align 8
  %21 = call i32 @putc(i32 noundef 92, ptr noundef %20)
  br label %22

22:                                               ; preds = %19, %14
  %23 = load ptr, ptr %6, align 8
  %24 = load i8, ptr %23, align 1
  %25 = sext i8 %24 to i32
  %26 = load ptr, ptr %4, align 8
  %27 = call i32 @putc(i32 noundef %25, ptr noundef %26)
  %28 = load ptr, ptr %6, align 8
  %29 = getelementptr i8, ptr %28, i32 1
  store ptr %29, ptr %6, align 8
  br label %10, !llvm.loop !208

30:                                               ; preds = %10
  %31 = load ptr, ptr %4, align 8
  %32 = call i32 (ptr, i32, ptr, ...) @__fprintf_chk(ptr noundef %31, i32 noundef 2, ptr noundef @.str.134)
  ret void
}

; Function Attrs: null_pointer_is_valid sspstrong uwtable
define hidden void @emit_code(ptr noundef %0, ptr noundef %1, ptr noundef %2, ptr noundef %3) #0 {
  %5 = alloca ptr, align 8
  %6 = alloca ptr, align 8
  %7 = alloca ptr, align 8
  %8 = alloca ptr, align 8
  %9 = alloca ptr, align 8
  store ptr %0, ptr %5, align 8
  store ptr %1, ptr %6, align 8
  store ptr %2, ptr %7, align 8
  store ptr %3, ptr %8, align 8
  call void @llvm.lifetime.start.p0(i64 8, ptr %9) #18
  %10 = load ptr, ptr %6, align 8
  %11 = getelementptr inbounds nuw %struct.rule, ptr %10, i32 0, i32 9
  %12 = load ptr, ptr %11, align 8
  %13 = icmp ne ptr %12, null
  br i1 %13, label %14, label %49

14:                                               ; preds = %4
  %15 = load ptr, ptr %6, align 8
  %16 = getelementptr inbounds nuw %struct.rule, ptr %15, i32 0, i32 9
  %17 = load ptr, ptr %16, align 8
  %18 = getelementptr i8, ptr %17, i64 0
  %19 = load i8, ptr %18, align 1
  %20 = sext i8 %19 to i32
  %21 = icmp ne i32 %20, 0
  br i1 %21, label %22, label %49

22:                                               ; preds = %14
  %23 = load ptr, ptr %5, align 8
  %24 = load ptr, ptr %6, align 8
  %25 = getelementptr inbounds nuw %struct.rule, ptr %24, i32 0, i32 9
  %26 = load ptr, ptr %25, align 8
  %27 = call i32 (ptr, i32, ptr, ...) @__fprintf_chk(ptr noundef %23, i32 noundef 2, ptr noundef @.str.152, ptr noundef %26)
  %28 = load ptr, ptr %6, align 8
  %29 = getelementptr inbounds nuw %struct.rule, ptr %28, i32 0, i32 9
  %30 = load ptr, ptr %29, align 8
  store ptr %30, ptr %9, align 8
  br label %31

31:                                               ; preds = %45, %22
  %32 = load ptr, ptr %9, align 8
  %33 = load i8, ptr %32, align 1
  %34 = icmp ne i8 %33, 0
  br i1 %34, label %35, label %48

35:                                               ; preds = %31
  %36 = load ptr, ptr %9, align 8
  %37 = load i8, ptr %36, align 1
  %38 = sext i8 %37 to i32
  %39 = icmp eq i32 %38, 10
  br i1 %39, label %40, label %44

40:                                               ; preds = %35
  %41 = load ptr, ptr %8, align 8
  %42 = load i32, ptr %41, align 4
  %43 = add i32 %42, 1
  store i32 %43, ptr %41, align 4
  br label %44

44:                                               ; preds = %40, %35
  br label %45

45:                                               ; preds = %44
  %46 = load ptr, ptr %9, align 8
  %47 = getelementptr i8, ptr %46, i32 1
  store ptr %47, ptr %9, align 8
  br label %31, !llvm.loop !218

48:                                               ; preds = %31
  br label %49

49:                                               ; preds = %48, %14, %4
  %50 = load ptr, ptr %6, align 8
  %51 = getelementptr inbounds nuw %struct.rule, ptr %50, i32 0, i32 8
  %52 = load ptr, ptr %51, align 8
  %53 = icmp ne ptr %52, null
  br i1 %53, label %54, label %117

54:                                               ; preds = %49
  %55 = load ptr, ptr %7, align 8
  %56 = getelementptr inbounds nuw %struct.lemon, ptr %55, i32 0, i32 44
  %57 = load i32, ptr %56, align 4
  %58 = icmp ne i32 %57, 0
  br i1 %58, label %70, label %59

59:                                               ; preds = %54
  %60 = load ptr, ptr %8, align 8
  %61 = load i32, ptr %60, align 4
  %62 = add i32 %61, 1
  store i32 %62, ptr %60, align 4
  %63 = load ptr, ptr %5, align 8
  %64 = load ptr, ptr %6, align 8
  %65 = getelementptr inbounds nuw %struct.rule, ptr %64, i32 0, i32 7
  %66 = load i32, ptr %65, align 8
  %67 = load ptr, ptr %7, align 8
  %68 = getelementptr inbounds nuw %struct.lemon, ptr %67, i32 0, i32 34
  %69 = load ptr, ptr %68, align 8
  call void @tplt_linedir(ptr noundef %63, i32 noundef %66, ptr noundef %69)
  br label %70

70:                                               ; preds = %59, %54
  %71 = load ptr, ptr %5, align 8
  %72 = load ptr, ptr %6, align 8
  %73 = getelementptr inbounds nuw %struct.rule, ptr %72, i32 0, i32 8
  %74 = load ptr, ptr %73, align 8
  %75 = call i32 (ptr, i32, ptr, ...) @__fprintf_chk(ptr noundef %71, i32 noundef 2, ptr noundef @.str.152, ptr noundef %74)
  %76 = load ptr, ptr %6, align 8
  %77 = getelementptr inbounds nuw %struct.rule, ptr %76, i32 0, i32 8
  %78 = load ptr, ptr %77, align 8
  store ptr %78, ptr %9, align 8
  br label %79

79:                                               ; preds = %93, %70
  %80 = load ptr, ptr %9, align 8
  %81 = load i8, ptr %80, align 1
  %82 = icmp ne i8 %81, 0
  br i1 %82, label %83, label %96

83:                                               ; preds = %79
  %84 = load ptr, ptr %9, align 8
  %85 = load i8, ptr %84, align 1
  %86 = sext i8 %85 to i32
  %87 = icmp eq i32 %86, 10
  br i1 %87, label %88, label %92

88:                                               ; preds = %83
  %89 = load ptr, ptr %8, align 8
  %90 = load i32, ptr %89, align 4
  %91 = add i32 %90, 1
  store i32 %91, ptr %89, align 4
  br label %92

92:                                               ; preds = %88, %83
  br label %93

93:                                               ; preds = %92
  %94 = load ptr, ptr %9, align 8
  %95 = getelementptr i8, ptr %94, i32 1
  store ptr %95, ptr %9, align 8
  br label %79, !llvm.loop !219

96:                                               ; preds = %79
  %97 = load ptr, ptr %5, align 8
  %98 = call i32 (ptr, i32, ptr, ...) @__fprintf_chk(ptr noundef %97, i32 noundef 2, ptr noundef @.str.137)
  %99 = load ptr, ptr %8, align 8
  %100 = load i32, ptr %99, align 4
  %101 = add i32 %100, 1
  store i32 %101, ptr %99, align 4
  %102 = load ptr, ptr %7, align 8
  %103 = getelementptr inbounds nuw %struct.lemon, ptr %102, i32 0, i32 44
  %104 = load i32, ptr %103, align 4
  %105 = icmp ne i32 %104, 0
  br i1 %105, label %116, label %106

106:                                              ; preds = %96
  %107 = load ptr, ptr %8, align 8
  %108 = load i32, ptr %107, align 4
  %109 = add i32 %108, 1
  store i32 %109, ptr %107, align 4
  %110 = load ptr, ptr %5, align 8
  %111 = load ptr, ptr %8, align 8
  %112 = load i32, ptr %111, align 4
  %113 = load ptr, ptr %7, align 8
  %114 = getelementptr inbounds nuw %struct.lemon, ptr %113, i32 0, i32 35
  %115 = load ptr, ptr %114, align 8
  call void @tplt_linedir(ptr noundef %110, i32 noundef %112, ptr noundef %115)
  br label %116

116:                                              ; preds = %106, %96
  br label %117

117:                                              ; preds = %116, %49
  %118 = load ptr, ptr %6, align 8
  %119 = getelementptr inbounds nuw %struct.rule, ptr %118, i32 0, i32 10
  %120 = load ptr, ptr %119, align 8
  %121 = icmp ne ptr %120, null
  br i1 %121, label %122, label %157

122:                                              ; preds = %117
  %123 = load ptr, ptr %6, align 8
  %124 = getelementptr inbounds nuw %struct.rule, ptr %123, i32 0, i32 10
  %125 = load ptr, ptr %124, align 8
  %126 = getelementptr i8, ptr %125, i64 0
  %127 = load i8, ptr %126, align 1
  %128 = sext i8 %127 to i32
  %129 = icmp ne i32 %128, 0
  br i1 %129, label %130, label %157

130:                                              ; preds = %122
  %131 = load ptr, ptr %5, align 8
  %132 = load ptr, ptr %6, align 8
  %133 = getelementptr inbounds nuw %struct.rule, ptr %132, i32 0, i32 10
  %134 = load ptr, ptr %133, align 8
  %135 = call i32 (ptr, i32, ptr, ...) @__fprintf_chk(ptr noundef %131, i32 noundef 2, ptr noundef @.str.84, ptr noundef %134)
  %136 = load ptr, ptr %6, align 8
  %137 = getelementptr inbounds nuw %struct.rule, ptr %136, i32 0, i32 10
  %138 = load ptr, ptr %137, align 8
  store ptr %138, ptr %9, align 8
  br label %139

139:                                              ; preds = %153, %130
  %140 = load ptr, ptr %9, align 8
  %141 = load i8, ptr %140, align 1
  %142 = icmp ne i8 %141, 0
  br i1 %142, label %143, label %156

143:                                              ; preds = %139
  %144 = load ptr, ptr %9, align 8
  %145 = load i8, ptr %144, align 1
  %146 = sext i8 %145 to i32
  %147 = icmp eq i32 %146, 10
  br i1 %147, label %148, label %152

148:                                              ; preds = %143
  %149 = load ptr, ptr %8, align 8
  %150 = load i32, ptr %149, align 4
  %151 = add i32 %150, 1
  store i32 %151, ptr %149, align 4
  br label %152

152:                                              ; preds = %148, %143
  br label %153

153:                                              ; preds = %152
  %154 = load ptr, ptr %9, align 8
  %155 = getelementptr i8, ptr %154, i32 1
  store ptr %155, ptr %9, align 8
  br label %139, !llvm.loop !220

156:                                              ; preds = %139
  br label %157

157:                                              ; preds = %156, %122, %117
  %158 = load ptr, ptr %6, align 8
  %159 = getelementptr inbounds nuw %struct.rule, ptr %158, i32 0, i32 9
  %160 = load ptr, ptr %159, align 8
  %161 = icmp ne ptr %160, null
  br i1 %161, label %162, label %168

162:                                              ; preds = %157
  %163 = load ptr, ptr %5, align 8
  %164 = call i32 (ptr, i32, ptr, ...) @__fprintf_chk(ptr noundef %163, i32 noundef 2, ptr noundef @.str.137)
  %165 = load ptr, ptr %8, align 8
  %166 = load i32, ptr %165, align 4
  %167 = add i32 %166, 1
  store i32 %167, ptr %165, align 4
  br label %168

168:                                              ; preds = %162, %157
  call void @llvm.lifetime.end.p0(i64 8, ptr %9) #18
  ret void
}