; Function Attrs: null_pointer_is_valid sspstrong uwtable
define hidden void @emit_code(ptr noundef %0, ptr noundef readonly captures(none) %1, ptr noundef readonly captures(none) %2, ptr noundef captures(none) %3) local_unnamed_addr #0 {
  %5 = getelementptr inbounds nuw i8, ptr %1, i64 64
  %6 = load ptr, ptr %5, align 8
  %.not = icmp eq ptr %6, null
  br i1 %.not, label %.loopexit59, label %7

7:                                                ; preds = %4
  %8 = load i8, ptr %6, align 1
  %.not46 = icmp eq i8 %8, 0
  br i1 %.not46, label %.loopexit59, label %9

9:                                                ; preds = %7
  %10 = tail call i32 (ptr, i32, ptr, ...) @__fprintf_chk(ptr noundef %0, i32 noundef 2, ptr noundef nonnull @.str.152, ptr noundef nonnull %6)
  %11 = load ptr, ptr %5, align 8
  br label %12

12:                                               ; preds = %17, %9
  %.0 = phi ptr [ %11, %9 ], [ %18, %17 ]
  %13 = load i8, ptr %.0, align 1
  switch i8 %13, label %17 [
    i8 0, label %.loopexit59
    i8 10, label %14
  ]

14:                                               ; preds = %12
  %15 = load i32, ptr %3, align 4
  %16 = add i32 %15, 1
  store i32 %16, ptr %3, align 4
  br label %17

17:                                               ; preds = %12, %14
  %18 = getelementptr i8, ptr %.0, i64 1
  br label %12, !llvm.loop !227

.loopexit59:                                      ; preds = %12, %7, %4
  %19 = getelementptr inbounds nuw i8, ptr %1, i64 56
  %20 = load ptr, ptr %19, align 8
  %.not48 = icmp eq ptr %20, null
  br i1 %.not48, label %73, label %21

21:                                               ; preds = %.loopexit59
  %22 = getelementptr inbounds nuw i8, ptr %2, i64 276
  %23 = load i32, ptr %22, align 4
  %.not49 = icmp eq i32 %23, 0
  br i1 %.not49, label %24, label %42

24:                                               ; preds = %21
  %25 = load i32, ptr %3, align 4
  %26 = add i32 %25, 1
  store i32 %26, ptr %3, align 4
  %27 = getelementptr inbounds nuw i8, ptr %1, i64 48
  %28 = load i32, ptr %27, align 8
  %29 = getelementptr inbounds nuw i8, ptr %2, i64 224
  %30 = load ptr, ptr %29, align 8
  %31 = tail call i32 (ptr, i32, ptr, ...) @__fprintf_chk(ptr noundef %0, i32 noundef 2, ptr noundef nonnull @.str.133, i32 noundef %28)
  br label %32

32:                                               ; preds = %36, %24
  %.0.i = phi ptr [ %30, %24 ], [ %40, %36 ]
  %33 = load i8, ptr %.0.i, align 1
  switch i8 %33, label %36 [
    i8 0, label %tplt_linedir.exit
    i8 92, label %34
  ]

34:                                               ; preds = %32
  %35 = tail call i32 @putc(i32 noundef 92, ptr noundef %0)
  %.pre.i = load i8, ptr %.0.i, align 1
  br label %36

36:                                               ; preds = %34, %32
  %37 = phi i8 [ %33, %32 ], [ %.pre.i, %34 ]
  %38 = sext i8 %37 to i32
  %39 = tail call i32 @putc(i32 noundef %38, ptr noundef %0)
  %40 = getelementptr i8, ptr %.0.i, i64 1
  br label %32, !llvm.loop !217

tplt_linedir.exit:                                ; preds = %32
  %41 = tail call i32 (ptr, i32, ptr, ...) @__fprintf_chk(ptr noundef %0, i32 noundef 2, ptr noundef nonnull @.str.134)
  %.pre = load ptr, ptr %19, align 8
  br label %42

42:                                               ; preds = %tplt_linedir.exit, %21
  %43 = phi ptr [ %.pre, %tplt_linedir.exit ], [ %20, %21 ]
  %44 = tail call i32 (ptr, i32, ptr, ...) @__fprintf_chk(ptr noundef %0, i32 noundef 2, ptr noundef nonnull @.str.152, ptr noundef %43)
  %45 = load ptr, ptr %19, align 8
  br label %46

46:                                               ; preds = %51, %42
  %.1 = phi ptr [ %45, %42 ], [ %52, %51 ]
  %47 = load i8, ptr %.1, align 1
  switch i8 %47, label %51 [
    i8 0, label %53
    i8 10, label %48
  ]

48:                                               ; preds = %46
  %49 = load i32, ptr %3, align 4
  %50 = add i32 %49, 1
  store i32 %50, ptr %3, align 4
  br label %51

51:                                               ; preds = %46, %48
  %52 = getelementptr i8, ptr %.1, i64 1
  br label %46, !llvm.loop !228

53:                                               ; preds = %46
  %54 = tail call i32 (ptr, i32, ptr, ...) @__fprintf_chk(ptr noundef %0, i32 noundef 2, ptr noundef nonnull @.str.137)
  %55 = load i32, ptr %3, align 4
  %56 = add i32 %55, 1
  store i32 %56, ptr %3, align 4
  %57 = load i32, ptr %22, align 4
  %.not51 = icmp eq i32 %57, 0
  br i1 %.not51, label %58, label %73

58:                                               ; preds = %53
  %59 = add i32 %55, 2
  store i32 %59, ptr %3, align 4
  %60 = getelementptr inbounds nuw i8, ptr %2, i64 232
  %61 = load ptr, ptr %60, align 8
  %62 = tail call i32 (ptr, i32, ptr, ...) @__fprintf_chk(ptr noundef %0, i32 noundef 2, ptr noundef nonnull @.str.133, i32 noundef %59)
  br label %63

63:                                               ; preds = %67, %58
  %.0.i56 = phi ptr [ %61, %58 ], [ %71, %67 ]
  %64 = load i8, ptr %.0.i56, align 1
  switch i8 %64, label %67 [
    i8 0, label %tplt_linedir.exit58
    i8 92, label %65
  ]

65:                                               ; preds = %63
  %66 = tail call i32 @putc(i32 noundef 92, ptr noundef %0)
  %.pre.i57 = load i8, ptr %.0.i56, align 1
  br label %67

67:                                               ; preds = %65, %63
  %68 = phi i8 [ %64, %63 ], [ %.pre.i57, %65 ]
  %69 = sext i8 %68 to i32
  %70 = tail call i32 @putc(i32 noundef %69, ptr noundef %0)
  %71 = getelementptr i8, ptr %.0.i56, i64 1
  br label %63, !llvm.loop !217

tplt_linedir.exit58:                              ; preds = %63
  %72 = tail call i32 (ptr, i32, ptr, ...) @__fprintf_chk(ptr noundef %0, i32 noundef 2, ptr noundef nonnull @.str.134)
  br label %73

73:                                               ; preds = %53, %tplt_linedir.exit58, %.loopexit59
  %74 = getelementptr inbounds nuw i8, ptr %1, i64 72
  %75 = load ptr, ptr %74, align 8
  %.not52 = icmp eq ptr %75, null
  br i1 %.not52, label %.loopexit, label %76

76:                                               ; preds = %73
  %77 = load i8, ptr %75, align 1
  %.not53 = icmp eq i8 %77, 0
  br i1 %.not53, label %.loopexit, label %78

78:                                               ; preds = %76
  %79 = tail call i32 (ptr, i32, ptr, ...) @__fprintf_chk(ptr noundef %0, i32 noundef 2, ptr noundef nonnull @.str.84, ptr noundef nonnull %75)
  %80 = load ptr, ptr %74, align 8
  br label %81

81:                                               ; preds = %86, %78
  %.2 = phi ptr [ %80, %78 ], [ %87, %86 ]
  %82 = load i8, ptr %.2, align 1
  switch i8 %82, label %86 [
    i8 0, label %.loopexit
    i8 10, label %83
  ]

83:                                               ; preds = %81
  %84 = load i32, ptr %3, align 4
  %85 = add i32 %84, 1
  store i32 %85, ptr %3, align 4
  br label %86

86:                                               ; preds = %81, %83
  %87 = getelementptr i8, ptr %.2, i64 1
  br label %81, !llvm.loop !229

.loopexit:                                        ; preds = %81, %76, %73
  %88 = load ptr, ptr %5, align 8
  %.not55 = icmp eq ptr %88, null
  br i1 %.not55, label %93, label %89

89:                                               ; preds = %.loopexit
  %90 = tail call i32 (ptr, i32, ptr, ...) @__fprintf_chk(ptr noundef %0, i32 noundef 2, ptr noundef nonnull @.str.137)
  %91 = load i32, ptr %3, align 4
  %92 = add i32 %91, 1
  store i32 %92, ptr %3, align 4
  br label %93

93:                                               ; preds = %89, %.loopexit
  ret void
}